; ModuleID = '38/1163.c'
source_filename = "38/1163.c"
target datalayout = "e-m:e-p270:32:32-p271:32:32-p272:64:64-i64:64-f80:128-n8:16:32:64-S128"
target triple = "x86_64-pc-linux-gnu"

@.str = private unnamed_addr constant [3 x i8] c"%d\00", align 1
@.str.1 = private unnamed_addr constant [4 x i8] c"%lf\00", align 1
@.str.2 = private unnamed_addr constant [6 x i8] c"%.5f\0A\00", align 1

; Function Attrs: noinline nounwind uwtable
define dso_local i32 @main() #0 {
  %1 = alloca i32, align 4
  %2 = alloca i32, align 4
  %3 = alloca i32, align 4
  %4 = alloca i32, align 4
  %5 = alloca i8*, align 8
  %6 = alloca i64, align 8
  %7 = alloca i64, align 8
  %8 = alloca i64, align 8
  %9 = alloca i64, align 8
  store i32 0, i32* %1, align 4
  %10 = call i32 (i8*, ...) @__isoc99_scanf(i8* getelementptr inbounds ([3 x i8], [3 x i8]* @.str, i64 0, i64 0), i32* %2)
  %11 = load i32, i32* %2, align 4
  %12 = zext i32 %11 to i64
  %13 = call i8* @llvm.stacksave()
  store i8* %13, i8** %5, align 8
  %14 = alloca i32, i64 %12, align 16
  store i64 %12, i64* %6, align 8
  %15 = load i32, i32* %2, align 4
  %16 = zext i32 %15 to i64
  %17 = alloca double, i64 %16, align 16
  store i64 %16, i64* %7, align 8
  %18 = load i32, i32* %2, align 4
  %19 = zext i32 %18 to i64
  %20 = alloca double, i64 %19, align 16
  store i64 %19, i64* %8, align 8
  %21 = load i32, i32* %2, align 4
  %22 = zext i32 %21 to i64
  %23 = alloca [1000 x double], i64 %22, align 16
  store i64 %22, i64* %9, align 8
  store i32 0, i32* %3, align 4
  br label %24

24:                                               ; preds = %52, %0
  %25 = load i32, i32* %3, align 4
  %26 = load i32, i32* %2, align 4
  %27 = icmp slt i32 %25, %26
  br i1 %27, label %28, label %55

28:                                               ; preds = %24
  %29 = load i32, i32* %3, align 4
  %30 = sext i32 %29 to i64
  %31 = getelementptr inbounds i32, i32* %14, i64 %30
  %32 = call i32 (i8*, ...) @__isoc99_scanf(i8* getelementptr inbounds ([3 x i8], [3 x i8]* @.str, i64 0, i64 0), i32* %31)
  store i32 0, i32* %4, align 4
  br label %33

33:                                               ; preds = %48, %28
  %34 = load i32, i32* %4, align 4
  %35 = load i32, i32* %3, align 4
  %36 = sext i32 %35 to i64
  %37 = getelementptr inbounds i32, i32* %14, i64 %36
  %38 = load i32, i32* %37, align 4
  %39 = icmp slt i32 %34, %38
  br i1 %39, label %40, label %51

40:                                               ; preds = %33
  %41 = load i32, i32* %3, align 4
  %42 = sext i32 %41 to i64
  %43 = getelementptr inbounds [1000 x double], [1000 x double]* %23, i64 %42
  %44 = load i32, i32* %4, align 4
  %45 = sext i32 %44 to i64
  %46 = getelementptr inbounds [1000 x double], [1000 x double]* %43, i64 0, i64 %45
  %47 = call i32 (i8*, ...) @__isoc99_scanf(i8* getelementptr inbounds ([4 x i8], [4 x i8]* @.str.1, i64 0, i64 0), double* %46)
  br label %48

48:                                               ; preds = %40
  %49 = load i32, i32* %4, align 4
  %50 = add nsw i32 %49, 1
  store i32 %50, i32* %4, align 4
  br label %33

51:                                               ; preds = %33
  br label %52

52:                                               ; preds = %51
  %53 = load i32, i32* %3, align 4
  %54 = add nsw i32 %53, 1
  store i32 %54, i32* %3, align 4
  br label %24

55:                                               ; preds = %24
  store i32 0, i32* %3, align 4
  br label %56

56:                                               ; preds = %157, %55
  %57 = load i32, i32* %3, align 4
  %58 = load i32, i32* %2, align 4
  %59 = icmp slt i32 %57, %58
  br i1 %59, label %60, label %160

60:                                               ; preds = %56
  %61 = load i32, i32* %3, align 4
  %62 = sext i32 %61 to i64
  %63 = getelementptr inbounds double, double* %17, i64 %62
  store double 0.000000e+00, double* %63, align 8
  %64 = load i32, i32* %3, align 4
  %65 = sext i32 %64 to i64
  %66 = getelementptr inbounds double, double* %20, i64 %65
  store double 0.000000e+00, double* %66, align 8
  store i32 0, i32* %4, align 4
  br label %67

67:                                               ; preds = %87, %60
  %68 = load i32, i32* %4, align 4
  %69 = load i32, i32* %3, align 4
  %70 = sext i32 %69 to i64
  %71 = getelementptr inbounds i32, i32* %14, i64 %70
  %72 = load i32, i32* %71, align 4
  %73 = icmp slt i32 %68, %72
  br i1 %73, label %74, label %90

74:                                               ; preds = %67
  %75 = load i32, i32* %3, align 4
  %76 = sext i32 %75 to i64
  %77 = getelementptr inbounds [1000 x double], [1000 x double]* %23, i64 %76
  %78 = load i32, i32* %4, align 4
  %79 = sext i32 %78 to i64
  %80 = getelementptr inbounds [1000 x double], [1000 x double]* %77, i64 0, i64 %79
  %81 = load double, double* %80, align 8
  %82 = load i32, i32* %3, align 4
  %83 = sext i32 %82 to i64
  %84 = getelementptr inbounds double, double* %17, i64 %83
  %85 = load double, double* %84, align 8
  %86 = fadd double %85, %81
  store double %86, double* %84, align 8
  br label %87

87:                                               ; preds = %74
  %88 = load i32, i32* %4, align 4
  %89 = add nsw i32 %88, 1
  store i32 %89, i32* %4, align 4
  br label %67

90:                                               ; preds = %67
  store i32 0, i32* %4, align 4
  br label %91

91:                                               ; preds = %141, %90
  %92 = load i32, i32* %4, align 4
  %93 = load i32, i32* %3, align 4
  %94 = sext i32 %93 to i64
  %95 = getelementptr inbounds i32, i32* %14, i64 %94
  %96 = load i32, i32* %95, align 4
  %97 = icmp slt i32 %92, %96
  br i1 %97, label %98, label %144

98:                                               ; preds = %91
  %99 = load i32, i32* %3, align 4
  %100 = sext i32 %99 to i64
  %101 = getelementptr inbounds [1000 x double], [1000 x double]* %23, i64 %100
  %102 = load i32, i32* %4, align 4
  %103 = sext i32 %102 to i64
  %104 = getelementptr inbounds [1000 x double], [1000 x double]* %101, i64 0, i64 %103
  %105 = load double, double* %104, align 8
  %106 = load i32, i32* %3, align 4
  %107 = sext i32 %106 to i64
  %108 = getelementptr inbounds double, double* %17, i64 %107
  %109 = load double, double* %108, align 8
  %110 = load i32, i32* %3, align 4
  %111 = sext i32 %110 to i64
  %112 = getelementptr inbounds i32, i32* %14, i64 %111
  %113 = load i32, i32* %112, align 4
  %114 = sitofp i32 %113 to double
  %115 = fdiv double %109, %114
  %116 = fsub double %105, %115
  %117 = load i32, i32* %3, align 4
  %118 = sext i32 %117 to i64
  %119 = getelementptr inbounds [1000 x double], [1000 x double]* %23, i64 %118
  %120 = load i32, i32* %4, align 4
  %121 = sext i32 %120 to i64
  %122 = getelementptr inbounds [1000 x double], [1000 x double]* %119, i64 0, i64 %121
  %123 = load double, double* %122, align 8
  %124 = load i32, i32* %3, align 4
  %125 = sext i32 %124 to i64
  %126 = getelementptr inbounds double, double* %17, i64 %125
  %127 = load double, double* %126, align 8
  %128 = load i32, i32* %3, align 4
  %129 = sext i32 %128 to i64
  %130 = getelementptr inbounds i32, i32* %14, i64 %129
  %131 = load i32, i32* %130, align 4
  %132 = sitofp i32 %131 to double
  %133 = fdiv double %127, %132
  %134 = fsub double %123, %133
  %135 = fmul double %116, %134
  %136 = load i32, i32* %3, align 4
  %137 = sext i32 %136 to i64
  %138 = getelementptr inbounds double, double* %20, i64 %137
  %139 = load double, double* %138, align 8
  %140 = fadd double %139, %135
  store double %140, double* %138, align 8
  br label %141

141:                                              ; preds = %98
  %142 = load i32, i32* %4, align 4
  %143 = add nsw i32 %142, 1
  store i32 %143, i32* %4, align 4
  br label %91

144:                                              ; preds = %91
  %145 = load i32, i32* %3, align 4
  %146 = sext i32 %145 to i64
  %147 = getelementptr inbounds double, double* %20, i64 %146
  %148 = load double, double* %147, align 8
  %149 = load i32, i32* %3, align 4
  %150 = sext i32 %149 to i64
  %151 = getelementptr inbounds i32, i32* %14, i64 %150
  %152 = load i32, i32* %151, align 4
  %153 = sitofp i32 %152 to double
  %154 = fdiv double %148, %153
  %155 = call double @sqrt(double %154) #2
  %156 = call i32 (i8*, ...) @printf(i8* getelementptr inbounds ([6 x i8], [6 x i8]* @.str.2, i64 0, i64 0), double %155)
  br label %157

157:                                              ; preds = %144
  %158 = load i32, i32* %3, align 4
  %159 = add nsw i32 %158, 1
  store i32 %159, i32* %3, align 4
  br label %56

160:                                              ; preds = %56
  store i32 0, i32* %1, align 4
  %161 = load i8*, i8** %5, align 8
  call void @llvm.stackrestore(i8* %161)
  %162 = load i32, i32* %1, align 4
  ret i32 %162
}

declare dso_local i32 @__isoc99_scanf(i8*, ...) #1

; Function Attrs: nounwind
declare i8* @llvm.stacksave() #2

declare dso_local i32 @printf(i8*, ...) #1

; Function Attrs: nounwind
declare dso_local double @sqrt(double) #3

; Function Attrs: nounwind
declare void @llvm.stackrestore(i8*) #2


!llvm.module.flags = !{!0}
!llvm.ident = !{!1}

!0 = !{i32 1, !"wchar_size", i32 4}
!1 = !{!"clang version 10.0.0-4ubuntu1 "}
